target datalayout = "e-m:e-p270:32:32-p271:32:32-p272:64:64-i64:64-i128:128-f80:128-n8:16:32:64-S128"
target triple = "x86_64-pc-linux-gnu"

%struct.TupleTableSlot = type { i32, i16, i16, ptr, ptr, ptr, ptr, ptr, %struct.ItemPointerData, i32 }
%struct.ItemPointerData = type { %struct.BlockIdData, i16 }
%struct.BlockIdData = type { i16, i16 }
%struct.HeapTupleTableSlot = type { %struct.TupleTableSlot, ptr, i32, %struct.HeapTupleData }
%struct.HeapTupleData = type { i32, %struct.ItemPointerData, i32, ptr }
%struct.BufferHeapTupleTableSlot = type { %struct.HeapTupleTableSlot, i32 }
%struct.HeapTupleHeaderData = type { %union.anon, %struct.ItemPointerData, i16, i16, i8, [0 x i8] }
%union.anon = type { %struct.HeapTupleFields }
%struct.HeapTupleFields = type { i32, i32, %union.anon.0 }
%union.anon.0 = type { i32 }

@.str.1 = private unnamed_addr constant [13 x i8] c"execTuples.c\00", align 1
@.str.10 = private unnamed_addr constant [43 x i8] c"don't have a storage tuple in this context\00", align 1
@__func__.tts_buffer_is_current_xact_tuple = private unnamed_addr constant [33 x i8] c"tts_buffer_is_current_xact_tuple\00", align 1

; Function Attrs: inlinehint nounwind uwtable
define internal i32 @HeapTupleHeaderGetRawXmin(ptr noundef %0) #4 {
  %2 = alloca ptr, align 8
  store ptr %0, ptr %2, align 8
  %3 = load ptr, ptr %2, align 8
  %4 = getelementptr inbounds nuw %struct.HeapTupleHeaderData, ptr %3, i32 0, i32 0
  %5 = getelementptr inbounds nuw %struct.HeapTupleFields, ptr %4, i32 0, i32 0
  %6 = load i32, ptr %5, align 4
  ret i32 %6
}

; Function Attrs: nounwind uwtable
define internal zeroext i1 @tts_buffer_is_current_xact_tuple(ptr noundef %0) #0 {
  %2 = alloca ptr, align 8
  %3 = alloca ptr, align 8
  %4 = alloca i32, align 4
  store ptr %0, ptr %2, align 8
  call void @llvm.lifetime.start.p0(i64 8, ptr %3) #10
  %5 = load ptr, ptr %2, align 8
  store ptr %5, ptr %3, align 8
  call void @llvm.lifetime.start.p0(i64 4, ptr %4) #10
  %6 = load ptr, ptr %3, align 8
  %7 = getelementptr inbounds nuw %struct.BufferHeapTupleTableSlot, ptr %6, i32 0, i32 0
  %8 = getelementptr inbounds nuw %struct.HeapTupleTableSlot, ptr %7, i32 0, i32 1
  %9 = load ptr, ptr %8, align 8
  %10 = icmp ne ptr %9, null
  br i1 %10, label %23, label %11

11:                                               ; preds = %1
  br label %12

12:                                               ; preds = %11
  br i1 true, label %13, label %15

13:                                               ; preds = %12
  %14 = call zeroext i1 @errstart_cold(i32 noundef 21, ptr noundef null) #11
  br i1 %14, label %17, label %20

15:                                               ; preds = %12
  %16 = call zeroext i1 @errstart(i32 noundef 21, ptr noundef null)
  br i1 %16, label %17, label %20

17:                                               ; preds = %15, %13
  %18 = call i32 @errcode(i32 noundef 1088)
  %19 = call i32 (ptr, ...) @errmsg(ptr noundef @.str.10)
  call void @errfinish(ptr noundef @.str.1, i32 noundef 794, ptr noundef @__func__.tts_buffer_is_current_xact_tuple)
  br label %20

20:                                               ; preds = %17, %15, %13
  unreachable

21:                                               ; No predecessors!
  br label %22

22:                                               ; preds = %21
  br label %23

23:                                               ; preds = %22, %1
  %24 = load ptr, ptr %3, align 8
  %25 = getelementptr inbounds nuw %struct.BufferHeapTupleTableSlot, ptr %24, i32 0, i32 0
  %26 = getelementptr inbounds nuw %struct.HeapTupleTableSlot, ptr %25, i32 0, i32 1
  %27 = load ptr, ptr %26, align 8
  %28 = getelementptr inbounds nuw %struct.HeapTupleData, ptr %27, i32 0, i32 3
  %29 = load ptr, ptr %28, align 8
  %30 = call i32 @HeapTupleHeaderGetRawXmin(ptr noundef %29)
  store i32 %30, ptr %4, align 4
  %31 = load i32, ptr %4, align 4
  %32 = call zeroext i1 @TransactionIdIsCurrentTransactionId(i32 noundef %31)
  call void @llvm.lifetime.end.p0(i64 4, ptr %4) #10
  call void @llvm.lifetime.end.p0(i64 8, ptr %3) #10
  ret i1 %32
}